; Function Attrs: mustprogress uwtable
define void @grpc_tls_credentials_options_set_cert_request_type(ptr noundef writeonly %0, i32 noundef %1) local_unnamed_addr #9 personality ptr @__gxx_personality_v0 {
  %3 = alloca %"class.absl::lts_20240722::log_internal::LogMessageFatal", align 8
  %.not.i = icmp eq ptr %0, null
  br i1 %.not.i, label %6, label %4, !prof !25

4:                                                ; preds = %2
  %5 = getelementptr inbounds nuw i8, ptr %0, i64 16
  store i32 %1, ptr %5, align 8, !tbaa !62
  ret void

6:                                                ; preds = %2
  %7 = tail call noundef nonnull ptr @_ZN4absl12lts_2024072212log_internal17MakeCheckOpStringIPKvS4_EEPNSt7__cxx1112basic_stringIcSt11char_traitsIcESaIcEEET_T0_PKc(ptr noundef null, ptr noundef null, ptr noundef nonnull @.str)
  call void @llvm.lifetime.start.p0(i64 16, ptr nonnull %3) #27
  %8 = load ptr, ptr %7, align 8, !tbaa !60
  %9 = getelementptr inbounds nuw i8, ptr %7, i64 8
  %10 = load i64, ptr %9, align 8, !tbaa !61
  call void @_ZN4absl12lts_2024072212log_internal15LogMessageFatalC1EPKciSt17basic_string_viewIcSt11char_traitsIcEE(ptr noundef nonnull align 8 dereferenceable(16) %3, ptr noundef nonnull @.str.1, i32 noundef 54, i64 %10, ptr %8) #30
  call void @_ZN4absl12lts_2024072212log_internal15LogMessageFatalD1Ev(ptr noundef nonnull align 8 dereferenceable(16) %3) #29
  unreachable
}